; Function Attrs: mustprogress uwtable
define noundef double @_ZNK8QuantLib26RangeAccrualFloatersCoupon23priceWithoutOptionalityERKNS_6HandleINS_18YieldTermStructureEEE(ptr noundef nonnull align 8 dereferenceable(280) %this, ptr noundef nonnull align 8 dereferenceable(16) %discountingCurve) local_unnamed_addr #8 align 2 {
entry:
  %ref.tmp = alloca %"class.QuantLib::Date", align 8
  %call = tail call noundef double @_ZNK8QuantLib6Coupon13accrualPeriodEv(ptr noundef nonnull align 8 dereferenceable(88) %this)
  %gearing_ = getelementptr inbounds nuw i8, ptr %this, i64 128
  %0 = load double, ptr %gearing_, align 8, !tbaa !99
  %vtable = load ptr, ptr %this, align 8, !tbaa !33
  %vfn = getelementptr inbounds i8, ptr %vtable, i64 104
  %1 = load ptr, ptr %vfn, align 8
  %call2 = tail call noundef double %1(ptr noundef nonnull align 8 dereferenceable(176) %this)
  %spread_ = getelementptr inbounds nuw i8, ptr %this, i64 136
  %2 = load double, ptr %spread_, align 8, !tbaa !100
  %vtable3 = load ptr, ptr %this, align 8, !tbaa !33
  %vfn4 = getelementptr inbounds i8, ptr %vtable3, i64 64
  %3 = load ptr, ptr %vfn4, align 8
  %call5 = tail call noundef double %3(ptr noundef nonnull align 8 dereferenceable(88) %this)
  %call7 = tail call noundef nonnull align 8 dereferenceable(16) ptr @_ZNK8QuantLib6HandleINS_18YieldTermStructureEEptEv(ptr noundef nonnull align 8 dereferenceable(16) %discountingCurve)
  %4 = load ptr, ptr %call7, align 8, !tbaa !83
  %cmp.not.i = icmp eq ptr %4, null
  br i1 %cmp.not.i, label %cond.false.i, label %_ZNK5boost10shared_ptrIN8QuantLib18YieldTermStructureEEptEv.exit, !prof !73

cond.false.i:                                     ; preds = %entry
  tail call void @_ZN5boost16assertion_failedEPKcS1_S1_l(ptr noundef nonnull @.str.44, ptr noundef nonnull @__PRETTY_FUNCTION__._ZNK5boost10shared_ptrIN8QuantLib18YieldTermStructureEEptEv, ptr noundef nonnull @.str.45, i64 noundef 784)
  %.pre.i = load ptr, ptr %call7, align 8, !tbaa !83
  br label %_ZNK5boost10shared_ptrIN8QuantLib18YieldTermStructureEEptEv.exit

_ZNK5boost10shared_ptrIN8QuantLib18YieldTermStructureEEptEv.exit: ; preds = %entry, %cond.false.i
  %5 = phi ptr [ %4, %entry ], [ %.pre.i, %cond.false.i ]
  %6 = tail call double @llvm.fmuladd.f64(double %0, double %call2, double %2)
  %mul = fmul double %call, %6
  %mul6 = fmul double %mul, %call5
  call void @llvm.lifetime.start.p0(i64 8, ptr nonnull %ref.tmp) #35
  %vtable9 = load ptr, ptr %this, align 8, !tbaa !33
  %vfn10 = getelementptr inbounds i8, ptr %vtable9, i64 16
  %7 = load ptr, ptr %vfn10, align 8
  %call11 = tail call i64 %7(ptr noundef nonnull align 8 dereferenceable(88) %this)
  store i64 %call11, ptr %ref.tmp, align 8
  %call.i = call noundef double @_ZNK8QuantLib13TermStructure17timeFromReferenceERKNS_4DateE(ptr noundef nonnull align 8 dereferenceable(64) %5, ptr noundef nonnull align 8 dereferenceable(8) %ref.tmp)
  %call2.i = call noundef double @_ZNK8QuantLib18YieldTermStructure8discountEdb(ptr noundef nonnull align 8 dereferenceable(152) %5, double noundef %call.i, i1 noundef zeroext false)
  %mul13 = fmul double %mul6, %call2.i
  call void @llvm.lifetime.end.p0(i64 8, ptr nonnull %ref.tmp) #35
  ret double %mul13
}